target datalayout = "e-m:e-p270:32:32-p271:32:32-p272:64:64-i64:64-i128:128-f80:128-n8:16:32:64-S128"
target triple = "x86_64-pc-linux-gnu"

%struct.reassembly_table = type { ptr, ptr, ptr, ptr, ptr }
%struct._packet_info = type { ptr, ptr, i32, i32, %struct.nstime_t, %struct.nstime_t, %struct.nstime_t, i8, ptr, ptr, ptr, ptr, %struct._address, %struct._address, %struct._address, %struct._address, %struct._address, %struct._address, i32, ptr, i8, [3 x i8], %struct.anon, i32, i32, i32, i32, ptr, i8, ptr, ptr, i16, i16, i32, i32, i16, i32, i32, ptr, ptr, ptr, i8, i8, i16, i16, i16, i32, i16, i16, ptr, ptr, ptr, ptr, ptr, i32, i32 }
%struct.nstime_t = type { i64, i32 }
%struct._address = type { i32, i32, ptr, ptr }
%struct.anon = type { i8, [3 x i8] }
%struct._frame_data = type <{ i32, i32, i32, i32, i32, [4 x i8], i64, ptr, ptr, ptr, i8, i16, [5 x i8], %struct.nstime_t, %struct.nstime_t, i32, i32 }>
%struct._fragment_head = type { ptr, ptr, i32, i32, i32, i32, i32, i32, i32, i8, i32, ptr, ptr }
%struct._fragment_item = type { ptr, i32, i32, i32, i32, ptr }

@smb_dcerpc_reassembly = external global i8, align 1
@smb_transact_heur_subdissector_list = internal global ptr null, align 8
@dcerpc_reassembly_table = internal global %struct.reassembly_table zeroinitializer, align 8
@.str.254 = private unnamed_addr constant [16 x i8] c"DCERPC over SMB\00", align 1
@hf_smb_pipe_reassembled_in = internal global i32 0, align 4

; Function Attrs: null_pointer_is_valid sspstrong uwtable
define hidden zeroext i1 @dissect_pipe_dcerpc(ptr noundef %0, ptr noundef %1, ptr noundef %2, ptr noundef %3, i32 noundef %4, ptr noundef %5) #0 {
  %7 = alloca ptr, align 8
  %8 = alloca ptr, align 8
  %9 = alloca ptr, align 8
  %10 = alloca ptr, align 8
  %11 = alloca i32, align 4
  %12 = alloca ptr, align 8
  %13 = alloca i8, align 1
  %14 = alloca i8, align 1
  %15 = alloca i32, align 4
  %16 = alloca ptr, align 8
  %17 = alloca ptr, align 8
  %18 = alloca ptr, align 8
  %19 = alloca ptr, align 8
  %20 = alloca ptr, align 8
  store ptr %0, ptr %7, align 8
  store ptr %1, ptr %8, align 8
  store ptr %2, ptr %9, align 8
  store ptr %3, ptr %10, align 8
  store i32 %4, ptr %11, align 4
  store ptr %5, ptr %12, align 8
  call void @llvm.lifetime.start.p0(i64 1, ptr %13) #7
  store i8 0, ptr %13, align 1
  call void @llvm.lifetime.start.p0(i64 1, ptr %14) #7
  call void @llvm.lifetime.start.p0(i64 4, ptr %15) #7
  call void @llvm.lifetime.start.p0(i64 8, ptr %16) #7
  call void @llvm.lifetime.start.p0(i64 8, ptr %17) #7
  call void @llvm.lifetime.start.p0(i64 8, ptr %18) #7
  call void @llvm.lifetime.start.p0(i64 8, ptr %19) #7
  call void @llvm.lifetime.start.p0(i64 8, ptr %20) #7
  %21 = load i32, ptr %11, align 4
  %22 = zext i32 %21 to i64
  %23 = load ptr, ptr %8, align 8
  call void @dcerpc_set_transport_salt(i64 noundef %22, ptr noundef %23)
  %24 = load ptr, ptr %8, align 8
  %25 = getelementptr inbounds nuw %struct._packet_info, ptr %24, i32 0, i32 31
  store i16 0, ptr %25, align 8
  %26 = load ptr, ptr %8, align 8
  %27 = getelementptr inbounds nuw %struct._packet_info, ptr %26, i32 0, i32 33
  store i32 0, ptr %27, align 4
  %28 = load ptr, ptr %8, align 8
  %29 = getelementptr inbounds nuw %struct._packet_info, ptr %28, i32 0, i32 34
  store i32 0, ptr %29, align 8
  %30 = load ptr, ptr %7, align 8
  %31 = call i32 @tvb_reported_length(ptr noundef %30)
  store i32 %31, ptr %15, align 4
  %32 = load i8, ptr @smb_dcerpc_reassembly, align 1, !range !6, !noundef !7
  %33 = trunc i8 %32 to i1
  br i1 %33, label %34, label %42

34:                                               ; preds = %6
  %35 = load ptr, ptr %7, align 8
  %36 = call i32 @tvb_captured_length(ptr noundef %35)
  %37 = load i32, ptr %15, align 4
  %38 = icmp uge i32 %36, %37
  br i1 %38, label %39, label %42

39:                                               ; preds = %34
  %40 = load ptr, ptr %8, align 8
  %41 = getelementptr inbounds nuw %struct._packet_info, ptr %40, i32 0, i32 31
  store i16 2, ptr %41, align 8
  br label %42

42:                                               ; preds = %39, %34, %6
  %43 = load ptr, ptr %8, align 8
  %44 = getelementptr inbounds nuw %struct._packet_info, ptr %43, i32 0, i32 20
  %45 = load i8, ptr %44, align 8, !range !6, !noundef !7
  %46 = trunc i8 %45 to i1
  %47 = zext i1 %46 to i8
  store i8 %47, ptr %14, align 1
  %48 = load ptr, ptr %8, align 8
  %49 = getelementptr inbounds nuw %struct._packet_info, ptr %48, i32 0, i32 31
  %50 = load i16, ptr %49, align 8
  %51 = icmp ne i16 %50, 0
  br i1 %51, label %60, label %52

52:                                               ; preds = %42
  %53 = load ptr, ptr @smb_transact_heur_subdissector_list, align 8
  %54 = load ptr, ptr %7, align 8
  %55 = load ptr, ptr %8, align 8
  %56 = load ptr, ptr %9, align 8
  %57 = load ptr, ptr %12, align 8
  %58 = call zeroext i1 @dissector_try_heuristic(ptr noundef %53, ptr noundef %54, ptr noundef %55, ptr noundef %56, ptr noundef %20, ptr noundef %57)
  %59 = zext i1 %58 to i8
  store i8 %59, ptr %13, align 1
  br label %227

60:                                               ; preds = %42
  %61 = load ptr, ptr %8, align 8
  %62 = getelementptr inbounds nuw %struct._packet_info, ptr %61, i32 0, i32 8
  %63 = load ptr, ptr %62, align 8
  %64 = getelementptr inbounds nuw %struct._frame_data, ptr %63, i32 0, i32 11
  %65 = load i16, ptr %64, align 1
  %66 = lshr i16 %65, 3
  %67 = and i16 %66, 1
  %68 = zext i16 %67 to i32
  %69 = icmp ne i32 %68, 0
  br i1 %69, label %159, label %70

70:                                               ; preds = %60
  %71 = load ptr, ptr %8, align 8
  %72 = load i32, ptr %11, align 4
  %73 = call ptr @fragment_get(ptr noundef @dcerpc_reassembly_table, ptr noundef %71, i32 noundef %72, ptr noundef null)
  store ptr %73, ptr %16, align 8
  %74 = load ptr, ptr %16, align 8
  %75 = icmp ne ptr %74, null
  br i1 %75, label %106, label %76

76:                                               ; preds = %70
  %77 = load ptr, ptr @smb_transact_heur_subdissector_list, align 8
  %78 = load ptr, ptr %7, align 8
  %79 = load ptr, ptr %8, align 8
  %80 = load ptr, ptr %9, align 8
  %81 = load ptr, ptr %12, align 8
  %82 = call zeroext i1 @dissector_try_heuristic(ptr noundef %77, ptr noundef %78, ptr noundef %79, ptr noundef %80, ptr noundef %20, ptr noundef %81)
  %83 = zext i1 %82 to i8
  store i8 %83, ptr %13, align 1
  %84 = load i8, ptr %13, align 1, !range !6, !noundef !7
  %85 = trunc i8 %84 to i1
  br i1 %85, label %87, label %86

86:                                               ; preds = %76
  br label %227

87:                                               ; preds = %76
  %88 = load ptr, ptr %8, align 8
  %89 = getelementptr inbounds nuw %struct._packet_info, ptr %88, i32 0, i32 34
  %90 = load i32, ptr %89, align 8
  %91 = icmp ne i32 %90, 0
  br i1 %91, label %92, label %105

92:                                               ; preds = %87
  %93 = load ptr, ptr %7, align 8
  %94 = load ptr, ptr %8, align 8
  %95 = load i32, ptr %11, align 4
  %96 = load i32, ptr %15, align 4
  %97 = call ptr @fragment_add_check(ptr noundef @dcerpc_reassembly_table, ptr noundef %93, i32 noundef 0, ptr noundef %94, i32 noundef %95, ptr noundef null, i32 noundef 0, i32 noundef %96, i1 noundef zeroext true)
  %98 = load ptr, ptr %8, align 8
  %99 = load i32, ptr %11, align 4
  %100 = load ptr, ptr %8, align 8
  %101 = getelementptr inbounds nuw %struct._packet_info, ptr %100, i32 0, i32 34
  %102 = load i32, ptr %101, align 8
  %103 = load i32, ptr %15, align 4
  %104 = add i32 %102, %103
  call void @fragment_set_tot_len(ptr noundef @dcerpc_reassembly_table, ptr noundef %98, i32 noundef %99, ptr noundef null, i32 noundef %104)
  br label %105

105:                                              ; preds = %92, %87
  br label %227

106:                                              ; preds = %70
  %107 = load ptr, ptr %16, align 8
  %108 = getelementptr inbounds nuw %struct._fragment_head, ptr %107, i32 0, i32 0
  %109 = load ptr, ptr %108, align 8
  store ptr %109, ptr %17, align 8
  br label %110

110:                                              ; preds = %116, %106
  %111 = load ptr, ptr %17, align 8
  %112 = getelementptr inbounds nuw %struct._fragment_item, ptr %111, i32 0, i32 0
  %113 = load ptr, ptr %112, align 8
  %114 = icmp ne ptr %113, null
  br i1 %114, label %115, label %120

115:                                              ; preds = %110
  br label %116

116:                                              ; preds = %115
  %117 = load ptr, ptr %17, align 8
  %118 = getelementptr inbounds nuw %struct._fragment_item, ptr %117, i32 0, i32 0
  %119 = load ptr, ptr %118, align 8
  store ptr %119, ptr %17, align 8
  br label %110, !llvm.loop !8

120:                                              ; preds = %110
  %121 = load ptr, ptr %7, align 8
  %122 = load ptr, ptr %8, align 8
  %123 = load i32, ptr %11, align 4
  %124 = load ptr, ptr %17, align 8
  %125 = getelementptr inbounds nuw %struct._fragment_item, ptr %124, i32 0, i32 2
  %126 = load i32, ptr %125, align 4
  %127 = load ptr, ptr %17, align 8
  %128 = getelementptr inbounds nuw %struct._fragment_item, ptr %127, i32 0, i32 3
  %129 = load i32, ptr %128, align 8
  %130 = add i32 %126, %129
  %131 = load i32, ptr %15, align 4
  %132 = call ptr @fragment_add_check(ptr noundef @dcerpc_reassembly_table, ptr noundef %121, i32 noundef 0, ptr noundef %122, i32 noundef %123, ptr noundef null, i32 noundef %130, i32 noundef %131, i1 noundef zeroext true)
  store ptr %132, ptr %16, align 8
  %133 = load ptr, ptr %16, align 8
  %134 = icmp ne ptr %133, null
  br i1 %134, label %135, label %158

135:                                              ; preds = %120
  %136 = load ptr, ptr %7, align 8
  %137 = load ptr, ptr %16, align 8
  %138 = getelementptr inbounds nuw %struct._fragment_head, ptr %137, i32 0, i32 11
  %139 = load ptr, ptr %138, align 8
  %140 = call ptr @tvb_new_chain(ptr noundef %136, ptr noundef %139)
  store ptr %140, ptr %18, align 8
  %141 = load ptr, ptr %8, align 8
  %142 = load ptr, ptr %18, align 8
  call void @add_new_data_source(ptr noundef %141, ptr noundef %142, ptr noundef @.str.254)
  %143 = load ptr, ptr %8, align 8
  %144 = getelementptr inbounds nuw %struct._packet_info, ptr %143, i32 0, i32 20
  store i8 0, ptr %144, align 8
  %145 = load ptr, ptr %18, align 8
  store ptr %145, ptr %7, align 8
  %146 = load ptr, ptr %16, align 8
  %147 = load ptr, ptr %10, align 8
  %148 = load ptr, ptr %8, align 8
  %149 = load ptr, ptr %7, align 8
  %150 = call zeroext i1 @show_fragment_tree(ptr noundef %146, ptr noundef @smb_pipe_frag_items, ptr noundef %147, ptr noundef %148, ptr noundef %149, ptr noundef %19)
  %151 = load ptr, ptr @smb_transact_heur_subdissector_list, align 8
  %152 = load ptr, ptr %7, align 8
  %153 = load ptr, ptr %8, align 8
  %154 = load ptr, ptr %9, align 8
  %155 = load ptr, ptr %12, align 8
  %156 = call zeroext i1 @dissector_try_heuristic(ptr noundef %151, ptr noundef %152, ptr noundef %153, ptr noundef %154, ptr noundef %20, ptr noundef %155)
  %157 = zext i1 %156 to i8
  store i8 %157, ptr %13, align 1
  br label %158

158:                                              ; preds = %135, %120
  br label %227

159:                                              ; preds = %60
  %160 = load ptr, ptr %7, align 8
  %161 = load ptr, ptr %8, align 8
  %162 = load i32, ptr %11, align 4
  %163 = call ptr @fragment_add_check(ptr noundef @dcerpc_reassembly_table, ptr noundef %160, i32 noundef 0, ptr noundef %161, i32 noundef %162, ptr noundef null, i32 noundef 0, i32 noundef 0, i1 noundef zeroext true)
  store ptr %163, ptr %16, align 8
  %164 = load ptr, ptr %16, align 8
  %165 = icmp ne ptr %164, null
  br i1 %165, label %174, label %166

166:                                              ; preds = %159
  %167 = load ptr, ptr @smb_transact_heur_subdissector_list, align 8
  %168 = load ptr, ptr %7, align 8
  %169 = load ptr, ptr %8, align 8
  %170 = load ptr, ptr %9, align 8
  %171 = load ptr, ptr %12, align 8
  %172 = call zeroext i1 @dissector_try_heuristic(ptr noundef %167, ptr noundef %168, ptr noundef %169, ptr noundef %170, ptr noundef %20, ptr noundef %171)
  %173 = zext i1 %172 to i8
  store i8 %173, ptr %13, align 1
  br label %227

174:                                              ; preds = %159
  %175 = load ptr, ptr %16, align 8
  %176 = getelementptr inbounds nuw %struct._fragment_head, ptr %175, i32 0, i32 10
  %177 = load i32, ptr %176, align 8
  %178 = and i32 %177, 1
  %179 = icmp ne i32 %178, 0
  br i1 %179, label %188, label %180

180:                                              ; preds = %174
  %181 = load ptr, ptr @smb_transact_heur_subdissector_list, align 8
  %182 = load ptr, ptr %7, align 8
  %183 = load ptr, ptr %8, align 8
  %184 = load ptr, ptr %9, align 8
  %185 = load ptr, ptr %12, align 8
  %186 = call zeroext i1 @dissector_try_heuristic(ptr noundef %181, ptr noundef %182, ptr noundef %183, ptr noundef %184, ptr noundef %20, ptr noundef %185)
  %187 = zext i1 %186 to i8
  store i8 %187, ptr %13, align 1
  br label %227

188:                                              ; preds = %174
  %189 = load ptr, ptr %8, align 8
  %190 = getelementptr inbounds nuw %struct._packet_info, ptr %189, i32 0, i32 3
  %191 = load i32, ptr %190, align 4
  %192 = load ptr, ptr %16, align 8
  %193 = getelementptr inbounds nuw %struct._fragment_head, ptr %192, i32 0, i32 8
  %194 = load i32, ptr %193, align 8
  %195 = icmp ne i32 %191, %194
  br i1 %195, label %196, label %204

196:                                              ; preds = %188
  %197 = load ptr, ptr %9, align 8
  %198 = load i32, ptr @hf_smb_pipe_reassembled_in, align 4
  %199 = load ptr, ptr %7, align 8
  %200 = load ptr, ptr %16, align 8
  %201 = getelementptr inbounds nuw %struct._fragment_head, ptr %200, i32 0, i32 8
  %202 = load i32, ptr %201, align 8
  %203 = call ptr @proto_tree_add_uint(ptr noundef %197, i32 noundef %198, ptr noundef %199, i32 noundef 0, i32 noundef 0, i32 noundef %202)
  br label %227

204:                                              ; preds = %188
  %205 = load ptr, ptr %7, align 8
  %206 = load ptr, ptr %16, align 8
  %207 = getelementptr inbounds nuw %struct._fragment_head, ptr %206, i32 0, i32 11
  %208 = load ptr, ptr %207, align 8
  %209 = call ptr @tvb_new_chain(ptr noundef %205, ptr noundef %208)
  store ptr %209, ptr %18, align 8
  %210 = load ptr, ptr %8, align 8
  %211 = load ptr, ptr %18, align 8
  call void @add_new_data_source(ptr noundef %210, ptr noundef %211, ptr noundef @.str.254)
  %212 = load ptr, ptr %8, align 8
  %213 = getelementptr inbounds nuw %struct._packet_info, ptr %212, i32 0, i32 20
  store i8 0, ptr %213, align 8
  %214 = load ptr, ptr %18, align 8
  store ptr %214, ptr %7, align 8
  %215 = load ptr, ptr %16, align 8
  %216 = load ptr, ptr %10, align 8
  %217 = load ptr, ptr %8, align 8
  %218 = load ptr, ptr %7, align 8
  %219 = call zeroext i1 @show_fragment_tree(ptr noundef %215, ptr noundef @smb_pipe_frag_items, ptr noundef %216, ptr noundef %217, ptr noundef %218, ptr noundef %19)
  %220 = load ptr, ptr @smb_transact_heur_subdissector_list, align 8
  %221 = load ptr, ptr %7, align 8
  %222 = load ptr, ptr %8, align 8
  %223 = load ptr, ptr %9, align 8
  %224 = load ptr, ptr %12, align 8
  %225 = call zeroext i1 @dissector_try_heuristic(ptr noundef %220, ptr noundef %221, ptr noundef %222, ptr noundef %223, ptr noundef %20, ptr noundef %224)
  %226 = zext i1 %225 to i8
  store i8 %226, ptr %13, align 1
  br label %227

227:                                              ; preds = %204, %196, %180, %166, %158, %105, %86, %52
  %228 = load ptr, ptr %8, align 8
  %229 = getelementptr inbounds nuw %struct._packet_info, ptr %228, i32 0, i32 31
  store i16 0, ptr %229, align 8
  %230 = load ptr, ptr %8, align 8
  %231 = getelementptr inbounds nuw %struct._packet_info, ptr %230, i32 0, i32 33
  store i32 0, ptr %231, align 4
  %232 = load ptr, ptr %8, align 8
  %233 = getelementptr inbounds nuw %struct._packet_info, ptr %232, i32 0, i32 34
  store i32 0, ptr %233, align 8
  %234 = load i8, ptr %13, align 1, !range !6, !noundef !7
  %235 = trunc i8 %234 to i1
  br i1 %235, label %241, label %236

236:                                              ; preds = %227
  %237 = load ptr, ptr %7, align 8
  %238 = load ptr, ptr %8, align 8
  %239 = load ptr, ptr %9, align 8
  %240 = call i32 @call_data_dissector(ptr noundef %237, ptr noundef %238, ptr noundef %239)
  br label %241

241:                                              ; preds = %236, %227
  %242 = load i8, ptr %14, align 1, !range !6, !noundef !7
  %243 = trunc i8 %242 to i1
  %244 = load ptr, ptr %8, align 8
  %245 = getelementptr inbounds nuw %struct._packet_info, ptr %244, i32 0, i32 20
  %246 = zext i1 %243 to i8
  store i8 %246, ptr %245, align 8
  call void @llvm.lifetime.end.p0(i64 8, ptr %20) #7
  call void @llvm.lifetime.end.p0(i64 8, ptr %19) #7
  call void @llvm.lifetime.end.p0(i64 8, ptr %18) #7
  call void @llvm.lifetime.end.p0(i64 8, ptr %17) #7
  call void @llvm.lifetime.end.p0(i64 8, ptr %16) #7
  call void @llvm.lifetime.end.p0(i64 4, ptr %15) #7
  call void @llvm.lifetime.end.p0(i64 1, ptr %14) #7
  call void @llvm.lifetime.end.p0(i64 1, ptr %13) #7
  ret i1 true
}