; Function Attrs: null_pointer_is_valid sspstrong uwtable
define hidden noundef zeroext i1 @dissect_pipe_dcerpc(ptr noundef %0, ptr noundef %1, ptr noundef %2, ptr noundef %3, i32 noundef %4, ptr noundef %5) local_unnamed_addr #0 {
  %7 = alloca ptr, align 8
  %8 = alloca ptr, align 8
  call void @llvm.lifetime.start.p0(i64 8, ptr nonnull %7) #9
  call void @llvm.lifetime.start.p0(i64 8, ptr nonnull %8) #9
  %9 = zext i32 %4 to i64
  tail call void @dcerpc_set_transport_salt(i64 noundef %9, ptr noundef %1)
  %10 = getelementptr inbounds nuw i8, ptr %1, i64 328
  store i16 0, ptr %10, align 8
  %11 = getelementptr inbounds nuw i8, ptr %1, i64 332
  store i32 0, ptr %11, align 4
  %12 = getelementptr inbounds nuw i8, ptr %1, i64 336
  store i32 0, ptr %12, align 8
  %13 = tail call i32 @tvb_reported_length(ptr noundef %0)
  %14 = load i8, ptr @smb_dcerpc_reassembly, align 1, !range !6, !noundef !7
  %15 = trunc nuw i8 %14 to i1
  br i1 %15, label %16, label %20

16:                                               ; preds = %6
  %17 = tail call i32 @tvb_captured_length(ptr noundef %0)
  %.not = icmp ult i32 %17, %13
  br i1 %.not, label %20, label %.thread

.thread:                                          ; preds = %16
  store i16 2, ptr %10, align 8
  %18 = getelementptr inbounds nuw i8, ptr %1, i64 272
  %19 = load i8, ptr %18, align 8, !range !6, !noundef !7
  br label %23

20:                                               ; preds = %16, %6
  %.pr = load i16, ptr %10, align 8
  %21 = getelementptr inbounds nuw i8, ptr %1, i64 272
  %22 = load i8, ptr %21, align 8, !range !6, !noundef !7
  %.not104 = icmp eq i16 %.pr, 0
  br i1 %.not104, label %87, label %23

23:                                               ; preds = %.thread, %20
  %24 = phi i8 [ %19, %.thread ], [ %22, %20 ]
  %25 = phi ptr [ %18, %.thread ], [ %21, %20 ]
  %26 = getelementptr inbounds nuw i8, ptr %1, i64 80
  %27 = load ptr, ptr %26, align 8
  %28 = getelementptr inbounds nuw i8, ptr %27, i64 57
  %29 = load i16, ptr %28, align 1
  %30 = and i16 %29, 8
  %.not105 = icmp eq i16 %30, 0
  br i1 %.not105, label %31, label %60

31:                                               ; preds = %23
  %32 = tail call ptr @fragment_get(ptr noundef nonnull @dcerpc_reassembly_table, ptr noundef %1, i32 noundef %4, ptr noundef null)
  %.not106 = icmp eq ptr %32, null
  br i1 %.not106, label %33, label %42

33:                                               ; preds = %31
  %34 = load ptr, ptr @smb_transact_heur_subdissector_list, align 8
  %35 = call zeroext i1 @dissector_try_heuristic(ptr noundef %34, ptr noundef %0, ptr noundef %1, ptr noundef %2, ptr noundef nonnull %8, ptr noundef %5)
  br i1 %35, label %36, label %.thread114

36:                                               ; preds = %33
  %37 = load i32, ptr %12, align 8
  %.not107 = icmp eq i32 %37, 0
  br i1 %.not107, label %.thread119, label %38

38:                                               ; preds = %36
  %39 = call ptr @fragment_add_check(ptr noundef nonnull @dcerpc_reassembly_table, ptr noundef %0, i32 noundef 0, ptr noundef %1, i32 noundef %4, ptr noundef null, i32 noundef 0, i32 noundef %13, i1 noundef zeroext true)
  %40 = load i32, ptr %12, align 8
  %41 = add i32 %40, %13
  call void @fragment_set_tot_len(ptr noundef nonnull @dcerpc_reassembly_table, ptr noundef %1, i32 noundef %4, ptr noundef null, i32 noundef %41)
  br label %.thread119

42:                                               ; preds = %31
  %43 = load ptr, ptr %32, align 8
  br label %44

44:                                               ; preds = %44, %42
  %.0 = phi ptr [ %43, %42 ], [ %45, %44 ]
  %45 = load ptr, ptr %.0, align 8
  %.not108 = icmp eq ptr %45, null
  br i1 %.not108, label %46, label %44, !llvm.loop !8

46:                                               ; preds = %44
  %47 = getelementptr inbounds nuw i8, ptr %.0, i64 12
  %48 = load i32, ptr %47, align 4
  %49 = getelementptr inbounds nuw i8, ptr %.0, i64 16
  %50 = load i32, ptr %49, align 8
  %51 = add i32 %50, %48
  %52 = tail call ptr @fragment_add_check(ptr noundef nonnull @dcerpc_reassembly_table, ptr noundef %0, i32 noundef 0, ptr noundef %1, i32 noundef %4, ptr noundef null, i32 noundef %51, i32 noundef %13, i1 noundef zeroext true)
  %.not109 = icmp eq ptr %52, null
  br i1 %.not109, label %.thread114, label %53

53:                                               ; preds = %46
  %54 = getelementptr inbounds nuw i8, ptr %52, i64 56
  %55 = load ptr, ptr %54, align 8
  %56 = tail call ptr @tvb_new_chain(ptr noundef %0, ptr noundef %55)
  tail call void @add_new_data_source(ptr noundef %1, ptr noundef %56, ptr noundef nonnull @.str.254)
  store i8 0, ptr %25, align 8
  %57 = call zeroext i1 @show_fragment_tree(ptr noundef nonnull %52, ptr noundef nonnull @smb_pipe_frag_items, ptr noundef %3, ptr noundef %1, ptr noundef %56, ptr noundef nonnull %7)
  %58 = load ptr, ptr @smb_transact_heur_subdissector_list, align 8
  %59 = call zeroext i1 @dissector_try_heuristic(ptr noundef %58, ptr noundef %56, ptr noundef %1, ptr noundef %2, ptr noundef nonnull %8, ptr noundef %5)
  store i16 0, ptr %10, align 8
  store i32 0, ptr %11, align 4
  store i32 0, ptr %12, align 8
  br i1 %59, label %94, label %90

60:                                               ; preds = %23
  %61 = tail call ptr @fragment_add_check(ptr noundef nonnull @dcerpc_reassembly_table, ptr noundef %0, i32 noundef 0, ptr noundef %1, i32 noundef %4, ptr noundef null, i32 noundef 0, i32 noundef 0, i1 noundef zeroext true)
  %.not110 = icmp eq ptr %61, null
  br i1 %.not110, label %62, label %65

62:                                               ; preds = %60
  %63 = load ptr, ptr @smb_transact_heur_subdissector_list, align 8
  %64 = call zeroext i1 @dissector_try_heuristic(ptr noundef %63, ptr noundef %0, ptr noundef %1, ptr noundef %2, ptr noundef nonnull %8, ptr noundef %5)
  store i16 0, ptr %10, align 8
  store i32 0, ptr %11, align 4
  store i32 0, ptr %12, align 8
  br i1 %64, label %94, label %90

65:                                               ; preds = %60
  %66 = getelementptr inbounds nuw i8, ptr %61, i64 48
  %67 = load i32, ptr %66, align 8
  %68 = and i32 %67, 1
  %.not111 = icmp eq i32 %68, 0
  br i1 %.not111, label %69, label %72

69:                                               ; preds = %65
  %70 = load ptr, ptr @smb_transact_heur_subdissector_list, align 8
  %71 = call zeroext i1 @dissector_try_heuristic(ptr noundef %70, ptr noundef %0, ptr noundef %1, ptr noundef %2, ptr noundef nonnull %8, ptr noundef %5)
  store i16 0, ptr %10, align 8
  store i32 0, ptr %11, align 4
  store i32 0, ptr %12, align 8
  br i1 %71, label %94, label %90

72:                                               ; preds = %65
  %73 = getelementptr inbounds nuw i8, ptr %1, i64 20
  %74 = load i32, ptr %73, align 4
  %75 = getelementptr inbounds nuw i8, ptr %61, i64 40
  %76 = load i32, ptr %75, align 8
  %.not112 = icmp eq i32 %74, %76
  br i1 %.not112, label %80, label %77

77:                                               ; preds = %72
  %78 = load i32, ptr @hf_smb_pipe_reassembled_in, align 4
  %79 = tail call ptr @proto_tree_add_uint(ptr noundef %2, i32 noundef %78, ptr noundef %0, i32 noundef 0, i32 noundef 0, i32 noundef %76)
  br label %.thread114

80:                                               ; preds = %72
  %81 = getelementptr inbounds nuw i8, ptr %61, i64 56
  %82 = load ptr, ptr %81, align 8
  %83 = tail call ptr @tvb_new_chain(ptr noundef %0, ptr noundef %82)
  tail call void @add_new_data_source(ptr noundef %1, ptr noundef %83, ptr noundef nonnull @.str.254)
  store i8 0, ptr %25, align 8
  %84 = call zeroext i1 @show_fragment_tree(ptr noundef nonnull %61, ptr noundef nonnull @smb_pipe_frag_items, ptr noundef %3, ptr noundef %1, ptr noundef %83, ptr noundef nonnull %7)
  %85 = load ptr, ptr @smb_transact_heur_subdissector_list, align 8
  %86 = call zeroext i1 @dissector_try_heuristic(ptr noundef %85, ptr noundef %83, ptr noundef %1, ptr noundef %2, ptr noundef nonnull %8, ptr noundef %5)
  store i16 0, ptr %10, align 8
  store i32 0, ptr %11, align 4
  store i32 0, ptr %12, align 8
  br i1 %86, label %94, label %90

.thread114:                                       ; preds = %77, %46, %33
  store i16 0, ptr %10, align 8
  store i32 0, ptr %11, align 4
  store i32 0, ptr %12, align 8
  br label %90

.thread119:                                       ; preds = %38, %36
  store i16 0, ptr %10, align 8
  store i32 0, ptr %11, align 4
  store i32 0, ptr %12, align 8
  br label %94

87:                                               ; preds = %20
  %88 = load ptr, ptr @smb_transact_heur_subdissector_list, align 8
  %89 = call zeroext i1 @dissector_try_heuristic(ptr noundef %88, ptr noundef %0, ptr noundef %1, ptr noundef %2, ptr noundef nonnull %8, ptr noundef %5)
  store i16 0, ptr %10, align 8
  store i32 0, ptr %11, align 4
  store i32 0, ptr %12, align 8
  br i1 %89, label %94, label %90

90:                                               ; preds = %53, %62, %69, %80, %.thread114, %87
  %.097117 = phi ptr [ %0, %.thread114 ], [ %0, %87 ], [ %83, %80 ], [ %0, %69 ], [ %0, %62 ], [ %56, %53 ]
  %91 = phi ptr [ %25, %.thread114 ], [ %21, %87 ], [ %25, %80 ], [ %25, %69 ], [ %25, %62 ], [ %25, %53 ]
  %92 = phi i8 [ %24, %.thread114 ], [ %22, %87 ], [ %24, %80 ], [ %24, %69 ], [ %24, %62 ], [ %24, %53 ]
  %93 = call i32 @call_data_dissector(ptr noundef %.097117, ptr noundef %1, ptr noundef %2)
  br label %94

94:                                               ; preds = %53, %62, %69, %80, %.thread119, %90, %87
  %95 = phi ptr [ %91, %90 ], [ %21, %87 ], [ %25, %.thread119 ], [ %25, %80 ], [ %25, %69 ], [ %25, %62 ], [ %25, %53 ]
  %96 = phi i8 [ %92, %90 ], [ %22, %87 ], [ %24, %.thread119 ], [ %24, %80 ], [ %24, %69 ], [ %24, %62 ], [ %24, %53 ]
  store i8 %96, ptr %95, align 8
  call void @llvm.lifetime.end.p0(i64 8, ptr nonnull %8) #9
  call void @llvm.lifetime.end.p0(i64 8, ptr nonnull %7) #9
  ret i1 true
}